; ModuleID = '60/59.c'
source_filename = "60/59.c"
target datalayout = "e-m:e-p270:32:32-p271:32:32-p272:64:64-i64:64-f80:128-n8:16:32:64-S128"
target triple = "x86_64-pc-linux-gnu"

@.str = private unnamed_addr constant [3 x i8] c"%d\00", align 1
@.str.1 = private unnamed_addr constant [7 x i8] c"%d %d\0A\00", align 1
@.str.2 = private unnamed_addr constant [6 x i8] c"empty\00", align 1

; Function Attrs: noinline nounwind uwtable
define dso_local i32 @sushu(i32 %0) #0 {
  %2 = alloca i32, align 4
  %3 = alloca i32, align 4
  %4 = alloca i32, align 4
  store i32 %0, i32* %3, align 4
  %5 = load i32, i32* %3, align 4
  %6 = srem i32 %5, 2
  %7 = icmp eq i32 %6, 0
  br i1 %7, label %8, label %9

8:                                                ; preds = %1
  store i32 0, i32* %2, align 4
  br label %36

9:                                                ; preds = %1
  store i32 3, i32* %4, align 4
  br label %10

10:                                               ; preds = %24, %9
  %11 = load i32, i32* %4, align 4
  %12 = sitofp i32 %11 to double
  %13 = load i32, i32* %3, align 4
  %14 = sitofp i32 %13 to double
  %15 = call double @sqrt(double %14) #3
  %16 = fcmp olt double %12, %15
  br i1 %16, label %17, label %27

17:                                               ; preds = %10
  %18 = load i32, i32* %3, align 4
  %19 = load i32, i32* %4, align 4
  %20 = srem i32 %18, %19
  %21 = icmp eq i32 %20, 0
  br i1 %21, label %22, label %23

22:                                               ; preds = %17
  br label %27

23:                                               ; preds = %17
  br label %24

24:                                               ; preds = %23
  %25 = load i32, i32* %4, align 4
  %26 = add nsw i32 %25, 1
  store i32 %26, i32* %4, align 4
  br label %10

27:                                               ; preds = %22, %10
  %28 = load i32, i32* %4, align 4
  %29 = sitofp i32 %28 to double
  %30 = load i32, i32* %3, align 4
  %31 = sitofp i32 %30 to double
  %32 = call double @sqrt(double %31) #3
  %33 = fcmp ogt double %29, %32
  br i1 %33, label %34, label %35

34:                                               ; preds = %27
  store i32 1, i32* %2, align 4
  br label %36

35:                                               ; preds = %27
  store i32 0, i32* %2, align 4
  br label %36

36:                                               ; preds = %35, %34, %8
  %37 = load i32, i32* %2, align 4
  ret i32 %37
}

; Function Attrs: nounwind
declare dso_local double @sqrt(double) #1

; Function Attrs: noinline nounwind uwtable
define dso_local void @main() #0 {
  %1 = alloca i32, align 4
  %2 = alloca i32, align 4
  %3 = call i32 (i8*, ...) @__isoc99_scanf(i8* getelementptr inbounds ([3 x i8], [3 x i8]* @.str, i64 0, i64 0), i32* %1)
  store i32 3, i32* %2, align 4
  br label %4

4:                                                ; preds = %25, %0
  %5 = load i32, i32* %2, align 4
  %6 = add nsw i32 %5, 2
  %7 = load i32, i32* %1, align 4
  %8 = icmp sle i32 %6, %7
  br i1 %8, label %9, label %28

9:                                                ; preds = %4
  %10 = load i32, i32* %2, align 4
  %11 = call i32 @sushu(i32 %10)
  %12 = icmp ne i32 %11, 0
  br i1 %12, label %13, label %23

13:                                               ; preds = %9
  %14 = load i32, i32* %2, align 4
  %15 = add nsw i32 %14, 2
  %16 = call i32 @sushu(i32 %15)
  %17 = icmp ne i32 %16, 0
  br i1 %17, label %18, label %23

18:                                               ; preds = %13
  %19 = load i32, i32* %2, align 4
  %20 = load i32, i32* %2, align 4
  %21 = add nsw i32 %20, 2
  %22 = call i32 (i8*, ...) @printf(i8* getelementptr inbounds ([7 x i8], [7 x i8]* @.str.1, i64 0, i64 0), i32 %19, i32 %21)
  br label %24

23:                                               ; preds = %13, %9
  br label %25

24:                                               ; preds = %18
  br label %25

25:                                               ; preds = %24, %23
  %26 = load i32, i32* %2, align 4
  %27 = add nsw i32 %26, 1
  store i32 %27, i32* %2, align 4
  br label %4

28:                                               ; preds = %4
  store i32 3, i32* %2, align 4
  br label %29

29:                                               ; preds = %45, %28
  %30 = load i32, i32* %2, align 4
  %31 = add nsw i32 %30, 2
  %32 = load i32, i32* %1, align 4
  %33 = icmp sle i32 %31, %32
  br i1 %33, label %34, label %48

34:                                               ; preds = %29
  %35 = load i32, i32* %2, align 4
  %36 = call i32 @sushu(i32 %35)
  %37 = icmp ne i32 %36, 0
  br i1 %37, label %38, label %44

38:                                               ; preds = %34
  %39 = load i32, i32* %2, align 4
  %40 = add nsw i32 %39, 2
  %41 = call i32 @sushu(i32 %40)
  %42 = icmp ne i32 %41, 0
  br i1 %42, label %43, label %44

43:                                               ; preds = %38
  br label %48

44:                                               ; preds = %38, %34
  br label %45

45:                                               ; preds = %44
  %46 = load i32, i32* %2, align 4
  %47 = add nsw i32 %46, 1
  store i32 %47, i32* %2, align 4
  br label %29

48:                                               ; preds = %43, %29
  %49 = load i32, i32* %2, align 4
  %50 = load i32, i32* %1, align 4
  %51 = icmp eq i32 %49, %50
  br i1 %51, label %57, label %52

52:                                               ; preds = %48
  %53 = load i32, i32* %2, align 4
  %54 = load i32, i32* %1, align 4
  %55 = sub nsw i32 %54, 1
  %56 = icmp eq i32 %53, %55
  br i1 %56, label %57, label %59

57:                                               ; preds = %52, %48
  %58 = call i32 (i8*, ...) @printf(i8* getelementptr inbounds ([6 x i8], [6 x i8]* @.str.2, i64 0, i64 0))
  br label %59

59:                                               ; preds = %57, %52
  ret void
}

declare dso_local i32 @__isoc99_scanf(i8*, ...) #2

declare dso_local i32 @printf(i8*, ...) #2


!llvm.module.flags = !{!0}
!llvm.ident = !{!1}

!0 = !{i32 1, !"wchar_size", i32 4}
!1 = !{!"clang version 10.0.0-4ubuntu1 "}
